target datalayout = "e-m:e-p270:32:32-p271:32:32-p272:64:64-i64:64-i128:128-f80:128-n8:16:32:64-S128"
target triple = "x86_64-pc-linux-gnu"

@.str = private unnamed_addr constant [126 x i8] c"generated/home/dtcxzyw/WorkSpace/Projects/compilers/llvm-opt-benchmark/bench/libquic/libquic/boringssl/crypto/x509/x509_att.c\00", align 1

; Function Attrs: nounwind uwtable
define hidden ptr @X509at_add1_attr(ptr noundef %0, ptr noundef %1) #0 {
  %3 = alloca ptr, align 8
  %4 = alloca ptr, align 8
  %5 = alloca ptr, align 8
  %6 = alloca ptr, align 8
  %7 = alloca ptr, align 8
  %8 = alloca i32, align 4
  store ptr %0, ptr %4, align 8, !tbaa !21
  store ptr %1, ptr %5, align 8, !tbaa !15
  call void @llvm.lifetime.start.p0(i64 8, ptr %6) #3
  store ptr null, ptr %6, align 8, !tbaa !15
  call void @llvm.lifetime.start.p0(i64 8, ptr %7) #3
  store ptr null, ptr %7, align 8, !tbaa !6
  %9 = load ptr, ptr %4, align 8, !tbaa !21
  %10 = icmp eq ptr %9, null
  br i1 %10, label %11, label %12

11:                                               ; preds = %2
  call void @ERR_put_error(i32 noundef 11, i32 noundef 0, i32 noundef 67, ptr noundef @.str, i32 noundef 126)
  br label %45

12:                                               ; preds = %2
  %13 = load ptr, ptr %4, align 8, !tbaa !21
  %14 = load ptr, ptr %13, align 8, !tbaa !6
  %15 = icmp eq ptr %14, null
  br i1 %15, label %16, label %21

16:                                               ; preds = %12
  %17 = call ptr @sk_new_null()
  store ptr %17, ptr %7, align 8, !tbaa !6
  %18 = icmp eq ptr %17, null
  br i1 %18, label %19, label %20

19:                                               ; preds = %16
  br label %44

20:                                               ; preds = %16
  br label %24

21:                                               ; preds = %12
  %22 = load ptr, ptr %4, align 8, !tbaa !21
  %23 = load ptr, ptr %22, align 8, !tbaa !6
  store ptr %23, ptr %7, align 8, !tbaa !6
  br label %24

24:                                               ; preds = %21, %20
  %25 = load ptr, ptr %5, align 8, !tbaa !15
  %26 = call ptr @X509_ATTRIBUTE_dup(ptr noundef %25)
  store ptr %26, ptr %6, align 8, !tbaa !15
  %27 = icmp eq ptr %26, null
  br i1 %27, label %28, label %29

28:                                               ; preds = %24
  br label %45

29:                                               ; preds = %24
  %30 = load ptr, ptr %7, align 8, !tbaa !6
  %31 = load ptr, ptr %6, align 8, !tbaa !15
  %32 = call i64 @sk_push(ptr noundef %30, ptr noundef %31)
  %33 = icmp ne i64 %32, 0
  br i1 %33, label %35, label %34

34:                                               ; preds = %29
  br label %44

35:                                               ; preds = %29
  %36 = load ptr, ptr %4, align 8, !tbaa !21
  %37 = load ptr, ptr %36, align 8, !tbaa !6
  %38 = icmp eq ptr %37, null
  br i1 %38, label %39, label %42

39:                                               ; preds = %35
  %40 = load ptr, ptr %7, align 8, !tbaa !6
  %41 = load ptr, ptr %4, align 8, !tbaa !21
  store ptr %40, ptr %41, align 8, !tbaa !6
  br label %42

42:                                               ; preds = %39, %35
  %43 = load ptr, ptr %7, align 8, !tbaa !6
  store ptr %43, ptr %3, align 8
  store i32 1, ptr %8, align 4
  br label %56

44:                                               ; preds = %34, %19
  call void @ERR_put_error(i32 noundef 11, i32 noundef 0, i32 noundef 65, ptr noundef @.str, i32 noundef 144)
  br label %45

45:                                               ; preds = %44, %28, %11
  %46 = load ptr, ptr %6, align 8, !tbaa !15
  %47 = icmp ne ptr %46, null
  br i1 %47, label %48, label %50

48:                                               ; preds = %45
  %49 = load ptr, ptr %6, align 8, !tbaa !15
  call void @X509_ATTRIBUTE_free(ptr noundef %49)
  br label %50

50:                                               ; preds = %48, %45
  %51 = load ptr, ptr %7, align 8, !tbaa !6
  %52 = icmp ne ptr %51, null
  br i1 %52, label %53, label %55

53:                                               ; preds = %50
  %54 = load ptr, ptr %7, align 8, !tbaa !6
  call void @sk_free(ptr noundef %54)
  br label %55

55:                                               ; preds = %53, %50
  store ptr null, ptr %3, align 8
  store i32 1, ptr %8, align 4
  br label %56

56:                                               ; preds = %55, %42
  call void @llvm.lifetime.end.p0(i64 8, ptr %7) #3
  call void @llvm.lifetime.end.p0(i64 8, ptr %6) #3
  %57 = load ptr, ptr %3, align 8
  ret ptr %57
}