; Function Attrs: nounwind uwtable
define hidden ptr @X509at_add1_attr(ptr noundef captures(address_is_null) %0, ptr noundef %1) local_unnamed_addr #0 {
  %3 = icmp eq ptr %0, null
  br i1 %3, label %.thread41, label %4

.thread41:                                        ; preds = %2
  tail call void @ERR_put_error(i32 noundef 11, i32 noundef 0, i32 noundef 67, ptr noundef nonnull @.str, i32 noundef 126) #4
  br label %20

4:                                                ; preds = %2
  %5 = load ptr, ptr %0, align 8, !tbaa !15
  %6 = icmp eq ptr %5, null
  br i1 %6, label %7, label %10

7:                                                ; preds = %4
  %8 = tail call ptr @sk_new_null() #4
  %9 = icmp eq ptr %8, null
  br i1 %9, label %.thread34, label %10

.thread34:                                        ; preds = %7
  tail call void @ERR_put_error(i32 noundef 11, i32 noundef 0, i32 noundef 65, ptr noundef nonnull @.str, i32 noundef 144) #4
  br label %20

10:                                               ; preds = %4, %7
  %.2 = phi ptr [ %8, %7 ], [ %5, %4 ]
  %11 = tail call ptr @X509_ATTRIBUTE_dup(ptr noundef %1) #4
  %12 = icmp eq ptr %11, null
  br i1 %12, label %19, label %13

13:                                               ; preds = %10
  %14 = tail call i64 @sk_push(ptr noundef nonnull %.2, ptr noundef nonnull %11) #4
  %.not = icmp eq i64 %14, 0
  br i1 %.not, label %.thread37, label %15

15:                                               ; preds = %13
  %16 = load ptr, ptr %0, align 8, !tbaa !15
  %17 = icmp eq ptr %16, null
  br i1 %17, label %18, label %20

18:                                               ; preds = %15
  store ptr %.2, ptr %0, align 8, !tbaa !15
  br label %20

.thread37:                                        ; preds = %13
  tail call void @ERR_put_error(i32 noundef 11, i32 noundef 0, i32 noundef 65, ptr noundef nonnull @.str, i32 noundef 144) #4
  tail call void @X509_ATTRIBUTE_free(ptr noundef nonnull %11) #4
  br label %19

19:                                               ; preds = %10, %.thread37
  tail call void @sk_free(ptr noundef nonnull %.2) #4
  br label %20

20:                                               ; preds = %.thread41, %.thread34, %19, %15, %18
  %.017 = phi ptr [ %.2, %18 ], [ %.2, %15 ], [ null, %19 ], [ null, %.thread34 ], [ null, %.thread41 ]
  ret ptr %.017
}